target datalayout = "e-m:e-p270:32:32-p271:32:32-p272:64:64-i64:64-i128:128-f80:128-n8:16:32:64-S128"
target triple = "x86_64-pc-linux-gnu"

%struct.evthread_lock_callbacks = type { i32, i32, ptr, ptr, ptr, ptr }
%union.pthread_mutex_t = type { %struct.__pthread_mutex_s }
%struct.__pthread_mutex_s = type { i32, i32, i32, i32, i32, i16, i16, %struct.__pthread_internal_list }
%struct.__pthread_internal_list = type { ptr, ptr }
%union.pthread_mutexattr_t = type { i32 }
%struct.evthread_condition_callbacks = type { i32, ptr, ptr, ptr, ptr }

@__const.evthread_use_pthreads_with_flags.cbs = private unnamed_addr constant %struct.evthread_lock_callbacks { i32 1, i32 1, ptr @evthread_posix_lock_alloc, ptr @evthread_posix_lock_free, ptr @evthread_posix_lock, ptr @evthread_posix_unlock }, align 8
@__const.evthread_use_pthreads_with_flags.cond_cbs = private unnamed_addr constant { i32, [4 x i8], ptr, ptr, ptr, ptr } { i32 1, [4 x i8] zeroinitializer, ptr @evthread_posix_cond_alloc, ptr @evthread_posix_cond_free, ptr @evthread_posix_cond_signal, ptr @evthread_posix_cond_wait }, align 8
@once_init_lock = internal global %union.pthread_mutex_t zeroinitializer, align 8
@once_init = internal global i32 0, align 4
@attr_default = internal global %union.pthread_mutexattr_t zeroinitializer, align 4
@attr_recursive = internal global %union.pthread_mutexattr_t zeroinitializer, align 4

; Function Attrs: nounwind uwtable
define i32 @evthread_use_pthreads_with_flags(i32 noundef %0) #0 {
  %2 = alloca i32, align 4
  %3 = alloca i32, align 4
  %4 = alloca %struct.evthread_lock_callbacks, align 8
  %5 = alloca %struct.evthread_condition_callbacks, align 8
  %6 = alloca i32, align 4
  store i32 %0, ptr %3, align 4
  call void @llvm.lifetime.start.p0(i64 40, ptr %4) #6
  call void @llvm.memcpy.p0.p0.i64(ptr align 8 %4, ptr align 8 @__const.evthread_use_pthreads_with_flags.cbs, i64 40, i1 false)
  call void @llvm.lifetime.start.p0(i64 40, ptr %5) #6
  call void @llvm.memcpy.p0.p0.i64(ptr align 8 %5, ptr align 8 @__const.evthread_use_pthreads_with_flags.cond_cbs, i64 40, i1 false)
  %7 = call i32 @pthread_mutex_lock(ptr noundef @once_init_lock) #6
  %8 = load i32, ptr @once_init, align 4
  %9 = icmp eq i32 %8, 1
  br i1 %9, label %10, label %12

10:                                               ; preds = %1
  %11 = call i32 @pthread_mutex_unlock(ptr noundef @once_init_lock) #6
  store i32 0, ptr %2, align 4
  store i32 1, ptr %6, align 4
  br label %43

12:                                               ; preds = %1
  %13 = call i32 @pthread_mutexattr_init(ptr noundef @attr_default) #6
  %14 = icmp ne i32 %13, 0
  br i1 %14, label %15, label %16

15:                                               ; preds = %12
  br label %41

16:                                               ; preds = %12
  %17 = call i32 @pthread_mutexattr_init(ptr noundef @attr_recursive) #6
  %18 = icmp ne i32 %17, 0
  br i1 %18, label %19, label %20

19:                                               ; preds = %16
  br label %41

20:                                               ; preds = %16
  %21 = call i32 @pthread_mutexattr_settype(ptr noundef @attr_recursive, i32 noundef 1) #6
  %22 = icmp ne i32 %21, 0
  br i1 %22, label %23, label %24

23:                                               ; preds = %20
  br label %41

24:                                               ; preds = %20
  %25 = load i32, ptr %3, align 4
  %26 = and i32 %25, 1
  %27 = icmp ne i32 %26, 0
  br i1 %27, label %28, label %37

28:                                               ; preds = %24
  %29 = call i32 @pthread_mutexattr_setprotocol(ptr noundef @attr_default, i32 noundef 1) #6
  %30 = icmp ne i32 %29, 0
  br i1 %30, label %31, label %32

31:                                               ; preds = %28
  br label %41

32:                                               ; preds = %28
  %33 = call i32 @pthread_mutexattr_setprotocol(ptr noundef @attr_recursive, i32 noundef 1) #6
  %34 = icmp ne i32 %33, 0
  br i1 %34, label %35, label %36

35:                                               ; preds = %32
  br label %41

36:                                               ; preds = %32
  br label %37

37:                                               ; preds = %36, %24
  %38 = call i32 @evthread_set_lock_callbacks(ptr noundef %4)
  %39 = call i32 @evthread_set_condition_callbacks(ptr noundef %5)
  call void @evthread_set_id_callback(ptr noundef @evthread_posix_get_id)
  store i32 1, ptr @once_init, align 4
  %40 = call i32 @pthread_mutex_unlock(ptr noundef @once_init_lock) #6
  store i32 0, ptr %2, align 4
  store i32 1, ptr %6, align 4
  br label %43

41:                                               ; preds = %35, %31, %23, %19, %15
  %42 = call i32 @pthread_mutex_unlock(ptr noundef @once_init_lock) #6
  store i32 -1, ptr %2, align 4
  store i32 1, ptr %6, align 4
  br label %43

43:                                               ; preds = %41, %37, %10
  call void @llvm.lifetime.end.p0(i64 40, ptr %5) #6
  call void @llvm.lifetime.end.p0(i64 40, ptr %4) #6
  %44 = load i32, ptr %2, align 4
  ret i32 %44
}