; Function Attrs: nounwind uwtable
define range(i32 -1, 1) i32 @evthread_use_pthreads_with_flags(i32 noundef %0) local_unnamed_addr #0 {
  %2 = alloca %struct.evthread_lock_callbacks, align 8
  %3 = alloca %struct.evthread_condition_callbacks, align 8
  call void @llvm.lifetime.start.p0(i64 40, ptr nonnull %2) #8
  call void @llvm.memcpy.p0.p0.i64(ptr noundef nonnull align 8 dereferenceable(40) %2, ptr noundef nonnull align 8 dereferenceable(40) @__const.evthread_use_pthreads_with_flags.cbs, i64 40, i1 false)
  call void @llvm.lifetime.start.p0(i64 40, ptr nonnull %3) #8
  call void @llvm.memcpy.p0.p0.i64(ptr noundef nonnull align 8 dereferenceable(40) %3, ptr noundef nonnull align 8 dereferenceable(40) @__const.evthread_use_pthreads_with_flags.cond_cbs, i64 40, i1 false)
  %4 = tail call i32 @pthread_mutex_lock(ptr noundef nonnull @once_init_lock) #8
  %.b = load i1, ptr @once_init, align 4
  br i1 %.b, label %5, label %7

5:                                                ; preds = %1
  %6 = tail call i32 @pthread_mutex_unlock(ptr noundef nonnull @once_init_lock) #8
  br label %25

7:                                                ; preds = %1
  %8 = tail call i32 @pthread_mutexattr_init(ptr noundef nonnull @attr_default) #8
  %.not = icmp eq i32 %8, 0
  br i1 %.not, label %9, label %23

9:                                                ; preds = %7
  %10 = tail call i32 @pthread_mutexattr_init(ptr noundef nonnull @attr_recursive) #8
  %.not2 = icmp eq i32 %10, 0
  br i1 %.not2, label %11, label %23

11:                                               ; preds = %9
  %12 = tail call i32 @pthread_mutexattr_settype(ptr noundef nonnull @attr_recursive, i32 noundef 1) #8
  %.not3 = icmp eq i32 %12, 0
  br i1 %.not3, label %13, label %23

13:                                               ; preds = %11
  %14 = and i32 %0, 1
  %.not4 = icmp eq i32 %14, 0
  br i1 %.not4, label %19, label %15

15:                                               ; preds = %13
  %16 = tail call i32 @pthread_mutexattr_setprotocol(ptr noundef nonnull @attr_default, i32 noundef 1) #8
  %.not5 = icmp eq i32 %16, 0
  br i1 %.not5, label %17, label %23

17:                                               ; preds = %15
  %18 = tail call i32 @pthread_mutexattr_setprotocol(ptr noundef nonnull @attr_recursive, i32 noundef 1) #8
  %.not6 = icmp eq i32 %18, 0
  br i1 %.not6, label %19, label %23

19:                                               ; preds = %17, %13
  %20 = call i32 @evthread_set_lock_callbacks(ptr noundef nonnull %2) #8
  %21 = call i32 @evthread_set_condition_callbacks(ptr noundef nonnull %3) #8
  call void @evthread_set_id_callback(ptr noundef nonnull @evthread_posix_get_id) #8
  store i1 true, ptr @once_init, align 4
  %22 = call i32 @pthread_mutex_unlock(ptr noundef nonnull @once_init_lock) #8
  br label %25

23:                                               ; preds = %17, %15, %11, %9, %7
  %24 = tail call i32 @pthread_mutex_unlock(ptr noundef nonnull @once_init_lock) #8
  br label %25

25:                                               ; preds = %23, %19, %5
  %.0 = phi i32 [ 0, %5 ], [ -1, %23 ], [ 0, %19 ]
  call void @llvm.lifetime.end.p0(i64 40, ptr nonnull %3) #8
  call void @llvm.lifetime.end.p0(i64 40, ptr nonnull %2) #8
  ret i32 %.0
}